target datalayout = "e-m:e-p270:32:32-p271:32:32-p272:64:64-i64:64-i128:128-f80:128-n8:16:32:64-S128"
target triple = "x86_64-pc-linux-gnu"

%struct._rtpstream_info = type { %struct._rtpstream_id, i8, ptr, [256 x ptr], ptr, i8, i32, i8, i32, i32, i32, ptr, ptr, %struct.nstime_t, %struct.nstime_t, %struct.nstime_t, i16, i8, i8, %struct._tap_rtp_stat_t, i8, ptr }
%struct._rtpstream_id = type { %struct._address, i16, %struct._address, i16, i32 }
%struct._address = type { i32, i32, ptr, ptr }
%struct.nstime_t = type { i64, i32 }
%struct._tap_rtp_stat_t = type { i8, i32, i16, i64, i64, double, [300 x %struct._bw_history_item], i16, i16, i32, i32, double, double, double, double, double, double, double, double, double, double, double, double, double, double, double, double, double, double, double, i32, i32, i32, i32, i32, i16, i32, i32, i32 }
%struct._bw_history_item = type { double, i32 }
%struct._rtp_info = type { i32, i8, i8, i32, i32, i16, i32, i32, i64, i32, i32, i8, i32, i32, i8, i32, ptr, ptr, i32, i32, ptr, i8, ptr, i8 }
%struct._packet_info = type { ptr, ptr, i32, i32, %struct.nstime_t, %struct.nstime_t, %struct.nstime_t, i8, ptr, ptr, ptr, ptr, %struct._address, %struct._address, %struct._address, %struct._address, %struct._address, %struct._address, i32, ptr, i8, [3 x i8], %struct.anon, i32, i32, i32, i32, ptr, i8, ptr, ptr, i16, i16, i32, i32, i16, i32, i32, ptr, ptr, ptr, i8, i8, i16, i16, i16, i32, i16, i16, ptr, ptr, ptr, ptr, ptr, i32, i32 }
%struct.anon = type { i8, [3 x i8] }
%struct._rtp_packet_info = type { [12 x i8], i32, i32, ptr, i32, i64, ptr, ptr, ptr, ptr, ptr }

@.str = private unnamed_addr constant [4 x i8] c"rtp\00", align 1

; Function Attrs: null_pointer_is_valid sspstrong uwtable
define hidden void @rtpstream_info_analyse_init(ptr noundef %0, ptr noundef %1, ptr noundef %2) #2 {
  %4 = alloca ptr, align 8
  %5 = alloca ptr, align 8
  %6 = alloca ptr, align 8
  %7 = alloca ptr, align 8
  store ptr %0, ptr %4, align 8
  store ptr %1, ptr %5, align 8
  store ptr %2, ptr %6, align 8
  call void @llvm.lifetime.start.p0(i64 8, ptr %7) #17
  store ptr null, ptr %7, align 8
  %8 = load ptr, ptr %6, align 8
  %9 = getelementptr inbounds nuw %struct._rtp_info, ptr %8, i32 0, i32 4
  %10 = load i32, ptr %9, align 4
  %11 = trunc i32 %10 to i8
  %12 = load ptr, ptr %4, align 8
  %13 = getelementptr inbounds nuw %struct._rtpstream_info, ptr %12, i32 0, i32 1
  store i8 %11, ptr %13, align 8
  %14 = load ptr, ptr %6, align 8
  %15 = getelementptr inbounds nuw %struct._rtp_info, ptr %14, i32 0, i32 17
  %16 = load ptr, ptr %15, align 8
  %17 = load ptr, ptr %4, align 8
  %18 = getelementptr inbounds nuw %struct._rtpstream_info, ptr %17, i32 0, i32 2
  store ptr %16, ptr %18, align 8
  %19 = load ptr, ptr %5, align 8
  %20 = getelementptr inbounds nuw %struct._packet_info, ptr %19, i32 0, i32 8
  %21 = load ptr, ptr %20, align 8
  %22 = load ptr, ptr %4, align 8
  %23 = getelementptr inbounds nuw %struct._rtpstream_info, ptr %22, i32 0, i32 11
  store ptr %21, ptr %23, align 8
  %24 = load ptr, ptr %4, align 8
  %25 = getelementptr inbounds nuw %struct._rtpstream_info, ptr %24, i32 0, i32 13
  %26 = load ptr, ptr %5, align 8
  %27 = getelementptr inbounds nuw %struct._packet_info, ptr %26, i32 0, i32 5
  call void @llvm.memcpy.p0.p0.i64(ptr align 8 %25, ptr align 8 %27, i64 16, i1 false)
  %28 = load ptr, ptr %4, align 8
  %29 = getelementptr inbounds nuw %struct._rtpstream_info, ptr %28, i32 0, i32 15
  %30 = load ptr, ptr %5, align 8
  %31 = getelementptr inbounds nuw %struct._packet_info, ptr %30, i32 0, i32 4
  call void @llvm.memcpy.p0.p0.i64(ptr align 8 %29, ptr align 8 %31, i64 16, i1 false)
  %32 = load ptr, ptr %4, align 8
  %33 = getelementptr inbounds nuw %struct._rtpstream_info, ptr %32, i32 0, i32 19
  %34 = getelementptr inbounds nuw %struct._tap_rtp_stat_t, ptr %33, i32 0, i32 0
  store i8 1, ptr %34, align 8
  %35 = load ptr, ptr %4, align 8
  %36 = getelementptr inbounds nuw %struct._rtpstream_info, ptr %35, i32 0, i32 19
  %37 = getelementptr inbounds nuw %struct._tap_rtp_stat_t, ptr %36, i32 0, i32 36
  store i32 -1, ptr %37, align 8
  %38 = call ptr @wmem_file_scope()
  %39 = load ptr, ptr %5, align 8
  %40 = call i32 @proto_get_id_by_filter_name(ptr noundef @.str)
  %41 = call ptr @p_get_proto_data(ptr noundef %38, ptr noundef %39, i32 noundef %40, i32 noundef 0)
  store ptr %41, ptr %7, align 8
  %42 = load ptr, ptr %7, align 8
  %43 = icmp ne ptr %42, null
  br i1 %43, label %44, label %50

44:                                               ; preds = %3
  %45 = load ptr, ptr %7, align 8
  %46 = getelementptr inbounds nuw %struct._rtp_packet_info, ptr %45, i32 0, i32 1
  %47 = load i32, ptr %46, align 4
  %48 = load ptr, ptr %4, align 8
  %49 = getelementptr inbounds nuw %struct._rtpstream_info, ptr %48, i32 0, i32 10
  store i32 %47, ptr %49, align 4
  br label %53

50:                                               ; preds = %3
  %51 = load ptr, ptr %4, align 8
  %52 = getelementptr inbounds nuw %struct._rtpstream_info, ptr %51, i32 0, i32 10
  store i32 -1, ptr %52, align 4
  br label %53

53:                                               ; preds = %50, %44
  call void @llvm.lifetime.end.p0(i64 8, ptr %7) #17
  ret void
}