; Function Attrs: null_pointer_is_valid sspstrong uwtable
define hidden void @rtpstream_info_analyse_init(ptr noundef writeonly captures(none) initializes((64, 65), (72, 80), (2156, 2168), (2176, 2192), (2208, 2224), (2232, 2233), (7264, 7268)) %0, ptr noundef %1, ptr noundef readonly captures(none) %2) local_unnamed_addr #1 {
  %4 = getelementptr inbounds nuw i8, ptr %2, i64 12
  %5 = load i32, ptr %4, align 4
  %6 = trunc i32 %5 to i8
  %7 = getelementptr inbounds nuw i8, ptr %0, i64 64
  store i8 %6, ptr %7, align 8
  %8 = getelementptr inbounds nuw i8, ptr %2, i64 80
  %9 = load ptr, ptr %8, align 8
  %10 = getelementptr inbounds nuw i8, ptr %0, i64 72
  store ptr %9, ptr %10, align 8
  %11 = getelementptr inbounds nuw i8, ptr %1, i64 80
  %12 = load ptr, ptr %11, align 8
  %13 = getelementptr inbounds nuw i8, ptr %0, i64 2160
  store ptr %12, ptr %13, align 8
  %14 = getelementptr inbounds nuw i8, ptr %0, i64 2176
  %15 = getelementptr inbounds nuw i8, ptr %1, i64 40
  tail call void @llvm.memcpy.p0.p0.i64(ptr noundef nonnull align 8 dereferenceable(16) %14, ptr noundef nonnull align 8 dereferenceable(16) %15, i64 16, i1 false)
  %16 = getelementptr inbounds nuw i8, ptr %0, i64 2208
  %17 = getelementptr inbounds nuw i8, ptr %1, i64 24
  tail call void @llvm.memcpy.p0.p0.i64(ptr noundef nonnull align 8 dereferenceable(16) %16, ptr noundef nonnull align 8 dereferenceable(16) %17, i64 16, i1 false)
  %18 = getelementptr inbounds nuw i8, ptr %0, i64 2232
  store i8 1, ptr %18, align 8
  %19 = getelementptr inbounds nuw i8, ptr %0, i64 7264
  store i32 -1, ptr %19, align 8
  %20 = tail call ptr @wmem_file_scope()
  %21 = tail call i32 @proto_get_id_by_filter_name(ptr noundef nonnull @.str)
  %22 = tail call ptr @p_get_proto_data(ptr noundef %20, ptr noundef %1, i32 noundef %21, i32 noundef 0)
  %.not = icmp eq ptr %22, null
  br i1 %.not, label %26, label %23

23:                                               ; preds = %3
  %24 = getelementptr inbounds nuw i8, ptr %22, i64 12
  %25 = load i32, ptr %24, align 4
  br label %26

26:                                               ; preds = %3, %23
  %.sink = phi i32 [ %25, %23 ], [ -1, %3 ]
  %27 = getelementptr inbounds nuw i8, ptr %0, i64 2156
  store i32 %.sink, ptr %27, align 4
  ret void
}